; Function Attrs: cold mustprogress nofree norecurse nosync nounwind optsize willreturn memory(argmem: write) uwtable
define internal fastcc void @vp9dsp_loopfilter_init(ptr noundef writeonly captures(none) initializes((640, 768)) %0) unnamed_addr #0 {
  %2 = getelementptr inbounds nuw i8, ptr %0, i64 640
  store ptr @loop_filter_h_4_8_c, ptr %2, align 8, !tbaa !4
  %3 = getelementptr inbounds nuw i8, ptr %0, i64 648
  store ptr @loop_filter_v_4_8_c, ptr %3, align 8, !tbaa !4
  %4 = getelementptr inbounds nuw i8, ptr %0, i64 656
  store ptr @loop_filter_h_8_8_c, ptr %4, align 8, !tbaa !4
  %5 = getelementptr inbounds nuw i8, ptr %0, i64 664
  store ptr @loop_filter_v_8_8_c, ptr %5, align 8, !tbaa !4
  %6 = getelementptr inbounds nuw i8, ptr %0, i64 672
  store ptr @loop_filter_h_16_8_c, ptr %6, align 8, !tbaa !4
  %7 = getelementptr inbounds nuw i8, ptr %0, i64 680
  store ptr @loop_filter_v_16_8_c, ptr %7, align 8, !tbaa !4
  %8 = getelementptr inbounds nuw i8, ptr %0, i64 688
  store ptr @loop_filter_h_16_16_c, ptr %8, align 8, !tbaa !4
  %9 = getelementptr inbounds nuw i8, ptr %0, i64 696
  store ptr @loop_filter_v_16_16_c, ptr %9, align 8, !tbaa !4
  %10 = getelementptr inbounds nuw i8, ptr %0, i64 704
  store ptr @loop_filter_h_44_16_c, ptr %10, align 8, !tbaa !4
  %11 = getelementptr inbounds nuw i8, ptr %0, i64 712
  store ptr @loop_filter_v_44_16_c, ptr %11, align 8, !tbaa !4
  %12 = getelementptr inbounds nuw i8, ptr %0, i64 720
  store ptr @loop_filter_h_48_16_c, ptr %12, align 8, !tbaa !4
  %13 = getelementptr inbounds nuw i8, ptr %0, i64 728
  store ptr @loop_filter_v_48_16_c, ptr %13, align 8, !tbaa !4
  %14 = getelementptr inbounds nuw i8, ptr %0, i64 736
  store ptr @loop_filter_h_84_16_c, ptr %14, align 8, !tbaa !4
  %15 = getelementptr inbounds nuw i8, ptr %0, i64 744
  store ptr @loop_filter_v_84_16_c, ptr %15, align 8, !tbaa !4
  %16 = getelementptr inbounds nuw i8, ptr %0, i64 752
  store ptr @loop_filter_h_88_16_c, ptr %16, align 8, !tbaa !4
  %17 = getelementptr inbounds nuw i8, ptr %0, i64 760
  store ptr @loop_filter_v_88_16_c, ptr %17, align 8, !tbaa !4
  ret void
}